(ikeras_frcnn.config
Config
p0
(dp1
S'use_vertical_flips'
p2
I00
sS'verbose'
p3
I01
sS'classifier_regr_std'
p4
(lp5
F8.0
aF8.0
aF4.0
aF4.0
asS'classifier_min_overlap'
p6
F0.1
sS'rot_90'
p7
I00
sS'class_mapping'
p8
(dp9
S'bg'
p10
I5
sS'1'
p11
I4
sS'0'
p12
I1
sS'3'
p13
I2
sS'2'
p14
I0
sS'4'
p15
I3
ssS'use_horizontal_flips'
p16
I00
sS'rpn_max_overlap'
p17
F0.7
sS'network'
p18
S'resnet50'
p19
sS'img_channel_mean'
p20
(lp21
F103.939
aF116.779
aF123.68
asS'balanced_classes'
p22
I00
sS'anchor_box_ratios'
p23
(lp24
(lp25
I1
aI1
aa(lp26
F0.7071067811865475
aF1.414213562373095
aa(lp27
F1.414213562373095
aF0.7071067811865475
aasS'img_scaling_factor'
p28
F1.0
sS'rpn_stride'
p29
I16
sS'num_rois'
p30
I2
sS'base_net_weights'
p31
S'resnet50_weights_tf_dim_ordering_tf_kernels.h5'
p32
sS'anchor_box_scales'
p33
(lp34
I128
aI256
aI512
asS'rpn_min_overlap'
p35
F0.3
sS'model_path'
p36
S'./model_frcnnXRside.hdf5'
p37
sS'classifier_max_overlap'
p38
F0.5
sS'std_scaling'
p39
F4.0
sS'im_size'
p40
I600
sb.